; Function Attrs: mustprogress uwtable
define hidden void @_ZN4cvc58internal11NodeBuilder7deallocEv(ptr noundef nonnull align 8 dereferenceable(116) %this) local_unnamed_addr #3 align 2 {
entry:
  %d_nv = getelementptr inbounds i8, ptr %this, i64 96
  %0 = load ptr, ptr %d_nv, align 8
  %d_nchildren.i6 = getelementptr inbounds i8, ptr %0, i64 12
  %bf.load.i7 = load i32, ptr %d_nchildren.i6, align 4
  %bf.clear.i8 = and i32 %bf.load.i7, 67108863
  %cmp.not11 = icmp eq i32 %bf.clear.i8, 0
  br i1 %cmp.not11, label %for.end, label %for.body.preheader

for.body.preheader:                               ; preds = %entry
  %d_children.i = getelementptr inbounds i8, ptr %0, i64 16
  br label %for.body

for.body:                                         ; preds = %for.body.preheader, %_ZN4cvc58internal4expr9NodeValue3decEv.exit
  %i.012 = phi ptr [ %incdec.ptr, %_ZN4cvc58internal4expr9NodeValue3decEv.exit ], [ %d_children.i, %for.body.preheader ]
  %1 = load ptr, ptr %i.012, align 8
  %bf.load.i4 = load i64, ptr %1, align 8
  %2 = and i64 %bf.load.i4, 1152920405095219200
  %cmp.not.i = icmp eq i64 %2, 1152920405095219200
  br i1 %cmp.not.i, label %_ZN4cvc58internal4expr9NodeValue3decEv.exit, label %if.then.i

if.then.i:                                        ; preds = %for.body
  %bf.value.i = add i64 %bf.load.i4, 1152920405095219200
  %bf.shl.i = and i64 %bf.value.i, 1152920405095219200
  %bf.clear7.i = and i64 %bf.load.i4, -1152920405095219201
  %bf.set.i = or disjoint i64 %bf.shl.i, %bf.clear7.i
  store i64 %bf.set.i, ptr %1, align 8
  %cmp12.i = icmp eq i64 %bf.shl.i, 0
  br i1 %cmp12.i, label %if.then13.i, label %_ZN4cvc58internal4expr9NodeValue3decEv.exit

if.then13.i:                                      ; preds = %if.then.i
  tail call void @_ZN4cvc58internal4expr9NodeValue15markForDeletionEv(ptr noundef nonnull align 8 dereferenceable(16) %1)
  br label %_ZN4cvc58internal4expr9NodeValue3decEv.exit

_ZN4cvc58internal4expr9NodeValue3decEv.exit:      ; preds = %for.body, %if.then.i, %if.then13.i
  %incdec.ptr = getelementptr inbounds i8, ptr %i.012, i64 8
  %3 = load ptr, ptr %d_nv, align 8
  %d_children.i3 = getelementptr inbounds i8, ptr %3, i64 16
  %d_nchildren.i = getelementptr inbounds i8, ptr %3, i64 12
  %bf.load.i = load i32, ptr %d_nchildren.i, align 4
  %bf.clear.i = and i32 %bf.load.i, 67108863
  %idx.ext.i = zext nneg i32 %bf.clear.i to i64
  %add.ptr.i = getelementptr inbounds ptr, ptr %d_children.i3, i64 %idx.ext.i
  %cmp.not = icmp eq ptr %incdec.ptr, %add.ptr.i
  br i1 %cmp.not, label %for.end, label %for.body, !llvm.loop !6

for.end:                                          ; preds = %_ZN4cvc58internal4expr9NodeValue3decEv.exit, %entry
  %.lcssa = phi ptr [ %0, %entry ], [ %3, %_ZN4cvc58internal4expr9NodeValue3decEv.exit ]
  tail call void @free(ptr noundef nonnull %.lcssa) #23
  store ptr %this, ptr %d_nv, align 8
  %d_nvMaxChildren = getelementptr inbounds i8, ptr %this, i64 112
  store i32 10, ptr %d_nvMaxChildren, align 8
  ret void
}